target datalayout = "e-m:e-p270:32:32-p271:32:32-p272:64:64-i64:64-i128:128-f80:128-n8:16:32:64-S128"
target triple = "x86_64-pc-linux-gnu"

@_ZZ8dtVequalPKfS0_E3thr = linkonce_odr global float 0.000000e+00, comdat, align 4
@_ZGVZ8dtVequalPKfS0_E3thr = linkonce_odr global i64 0, comdat, align 8

; Function Attrs: mustprogress nounwind uwtable
define linkonce_odr noundef float @_Z10dtVdistSqrPKfS0_(ptr noundef %0, ptr noundef %1) #0 comdat {
  %3 = alloca ptr, align 8
  %4 = alloca ptr, align 8
  %5 = alloca float, align 4
  %6 = alloca float, align 4
  %7 = alloca float, align 4
  store ptr %0, ptr %3, align 8
  store ptr %1, ptr %4, align 8
  %8 = load ptr, ptr %4, align 8
  %9 = getelementptr inbounds float, ptr %8, i64 0
  %10 = load float, ptr %9, align 4
  %11 = load ptr, ptr %3, align 8
  %12 = getelementptr inbounds float, ptr %11, i64 0
  %13 = load float, ptr %12, align 4
  %14 = fsub float %10, %13
  store float %14, ptr %5, align 4
  %15 = load ptr, ptr %4, align 8
  %16 = getelementptr inbounds float, ptr %15, i64 1
  %17 = load float, ptr %16, align 4
  %18 = load ptr, ptr %3, align 8
  %19 = getelementptr inbounds float, ptr %18, i64 1
  %20 = load float, ptr %19, align 4
  %21 = fsub float %17, %20
  store float %21, ptr %6, align 4
  %22 = load ptr, ptr %4, align 8
  %23 = getelementptr inbounds float, ptr %22, i64 2
  %24 = load float, ptr %23, align 4
  %25 = load ptr, ptr %3, align 8
  %26 = getelementptr inbounds float, ptr %25, i64 2
  %27 = load float, ptr %26, align 4
  %28 = fsub float %24, %27
  store float %28, ptr %7, align 4
  %29 = load float, ptr %5, align 4
  %30 = load float, ptr %5, align 4
  %31 = load float, ptr %6, align 4
  %32 = load float, ptr %6, align 4
  %33 = fmul float %31, %32
  %34 = call float @llvm.fmuladd.f32(float %29, float %30, float %33)
  %35 = load float, ptr %7, align 4
  %36 = load float, ptr %7, align 4
  %37 = call float @llvm.fmuladd.f32(float %35, float %36, float %34)
  ret float %37
}

; Function Attrs: mustprogress nounwind uwtable
define linkonce_odr noundef float @_Z5dtSqrIfET_S0_(float noundef %0) #0 comdat {
  %2 = alloca float, align 4
  store float %0, ptr %2, align 4
  %3 = load float, ptr %2, align 4
  %4 = load float, ptr %2, align 4
  %5 = fmul float %3, %4
  ret float %5
}

; Function Attrs: mustprogress nounwind uwtable
define linkonce_odr void @_Z7dtVcopyPfPKf(ptr noundef %0, ptr noundef %1) #0 comdat {
  %3 = alloca ptr, align 8
  %4 = alloca ptr, align 8
  store ptr %0, ptr %3, align 8
  store ptr %1, ptr %4, align 8
  %5 = load ptr, ptr %4, align 8
  %6 = getelementptr inbounds float, ptr %5, i64 0
  %7 = load float, ptr %6, align 4
  %8 = load ptr, ptr %3, align 8
  %9 = getelementptr inbounds float, ptr %8, i64 0
  store float %7, ptr %9, align 4
  %10 = load ptr, ptr %4, align 8
  %11 = getelementptr inbounds float, ptr %10, i64 1
  %12 = load float, ptr %11, align 4
  %13 = load ptr, ptr %3, align 8
  %14 = getelementptr inbounds float, ptr %13, i64 1
  store float %12, ptr %14, align 4
  %15 = load ptr, ptr %4, align 8
  %16 = getelementptr inbounds float, ptr %15, i64 2
  %17 = load float, ptr %16, align 4
  %18 = load ptr, ptr %3, align 8
  %19 = getelementptr inbounds float, ptr %18, i64 2
  store float %17, ptr %19, align 4
  ret void
}

; Function Attrs: mustprogress uwtable
define linkonce_odr noundef zeroext i1 @_Z8dtVequalPKfS0_(ptr noundef %0, ptr noundef %1) #1 comdat personality ptr @__gxx_personality_v0 {
  %3 = alloca ptr, align 8
  %4 = alloca ptr, align 8
  %5 = alloca ptr, align 8
  %6 = alloca i32, align 4
  %7 = alloca float, align 4
  store ptr %0, ptr %3, align 8
  store ptr %1, ptr %4, align 8
  %8 = load atomic i8, ptr @_ZGVZ8dtVequalPKfS0_E3thr acquire, align 8
  %9 = icmp eq i8 %8, 0
  br i1 %9, label %10, label %16, !prof !41

10:                                               ; preds = %2
  %11 = call i32 @__cxa_guard_acquire(ptr @_ZGVZ8dtVequalPKfS0_E3thr) #9
  %12 = icmp ne i32 %11, 0
  br i1 %12, label %13, label %16

13:                                               ; preds = %10
  %14 = invoke noundef float @_Z5dtSqrIfET_S0_(float noundef 0x3F10000000000000)
          to label %15 unwind label %23

15:                                               ; preds = %13
  store float %14, ptr @_ZZ8dtVequalPKfS0_E3thr, align 4
  call void @__cxa_guard_release(ptr @_ZGVZ8dtVequalPKfS0_E3thr) #9
  br label %16

16:                                               ; preds = %15, %10, %2
  %17 = load ptr, ptr %3, align 8
  %18 = load ptr, ptr %4, align 8
  %19 = call noundef float @_Z10dtVdistSqrPKfS0_(ptr noundef %17, ptr noundef %18)
  store float %19, ptr %7, align 4
  %20 = load float, ptr %7, align 4
  %21 = load float, ptr @_ZZ8dtVequalPKfS0_E3thr, align 4
  %22 = fcmp olt float %20, %21
  ret i1 %22

23:                                               ; preds = %13
  %24 = landingpad { ptr, i32 }
          cleanup
  %25 = extractvalue { ptr, i32 } %24, 0
  store ptr %25, ptr %5, align 8
  %26 = extractvalue { ptr, i32 } %24, 1
  store i32 %26, ptr %6, align 4
  call void @__cxa_guard_abort(ptr @_ZGVZ8dtVequalPKfS0_E3thr) #9
  br label %27

27:                                               ; preds = %23
  %28 = load ptr, ptr %5, align 8
  %29 = load i32, ptr %6, align 4
  %30 = insertvalue { ptr, i32 } poison, ptr %28, 0
  %31 = insertvalue { ptr, i32 } %30, i32 %29, 1
  resume { ptr, i32 } %31
}

; Function Attrs: mustprogress uwtable
define noundef i32 @_ZNK14dtNavMeshQuery12appendVertexEPKfhjPfPhPjPii(ptr noundef nonnull align 8 dereferenceable(104) %0, ptr noundef %1, i8 noundef zeroext %2, i32 noundef %3, ptr noundef %4, ptr noundef %5, ptr noundef %6, ptr noundef %7, i32 noundef %8) #1 align 2 {
  %10 = alloca i32, align 4
  %11 = alloca ptr, align 8
  %12 = alloca ptr, align 8
  %13 = alloca i8, align 1
  %14 = alloca i32, align 4
  %15 = alloca ptr, align 8
  %16 = alloca ptr, align 8
  %17 = alloca ptr, align 8
  %18 = alloca ptr, align 8
  %19 = alloca i32, align 4
  store ptr %0, ptr %11, align 8
  store ptr %1, ptr %12, align 8
  store i8 %2, ptr %13, align 1
  store i32 %3, ptr %14, align 4
  store ptr %4, ptr %15, align 8
  store ptr %5, ptr %16, align 8
  store ptr %6, ptr %17, align 8
  store ptr %7, ptr %18, align 8
  store i32 %8, ptr %19, align 4
  %20 = load ptr, ptr %18, align 8
  %21 = load i32, ptr %20, align 4
  %22 = icmp sgt i32 %21, 0
  br i1 %22, label %23, label %56

23:                                               ; preds = %9
  %24 = load ptr, ptr %15, align 8
  %25 = load ptr, ptr %18, align 8
  %26 = load i32, ptr %25, align 4
  %27 = sub nsw i32 %26, 1
  %28 = mul nsw i32 %27, 3
  %29 = sext i32 %28 to i64
  %30 = getelementptr inbounds float, ptr %24, i64 %29
  %31 = load ptr, ptr %12, align 8
  %32 = call noundef zeroext i1 @_Z8dtVequalPKfS0_(ptr noundef %30, ptr noundef %31)
  br i1 %32, label %33, label %56

33:                                               ; preds = %23
  %34 = load ptr, ptr %16, align 8
  %35 = icmp ne ptr %34, null
  br i1 %35, label %36, label %44

36:                                               ; preds = %33
  %37 = load i8, ptr %13, align 1
  %38 = load ptr, ptr %16, align 8
  %39 = load ptr, ptr %18, align 8
  %40 = load i32, ptr %39, align 4
  %41 = sub nsw i32 %40, 1
  %42 = sext i32 %41 to i64
  %43 = getelementptr inbounds i8, ptr %38, i64 %42
  store i8 %37, ptr %43, align 1
  br label %44

44:                                               ; preds = %36, %33
  %45 = load ptr, ptr %17, align 8
  %46 = icmp ne ptr %45, null
  br i1 %46, label %47, label %55

47:                                               ; preds = %44
  %48 = load i32, ptr %14, align 4
  %49 = load ptr, ptr %17, align 8
  %50 = load ptr, ptr %18, align 8
  %51 = load i32, ptr %50, align 4
  %52 = sub nsw i32 %51, 1
  %53 = sext i32 %52 to i64
  %54 = getelementptr inbounds i32, ptr %49, i64 %53
  store i32 %48, ptr %54, align 4
  br label %55

55:                                               ; preds = %47, %44
  br label %98

56:                                               ; preds = %23, %9
  %57 = load ptr, ptr %15, align 8
  %58 = load ptr, ptr %18, align 8
  %59 = load i32, ptr %58, align 4
  %60 = mul nsw i32 %59, 3
  %61 = sext i32 %60 to i64
  %62 = getelementptr inbounds float, ptr %57, i64 %61
  %63 = load ptr, ptr %12, align 8
  call void @_Z7dtVcopyPfPKf(ptr noundef %62, ptr noundef %63)
  %64 = load ptr, ptr %16, align 8
  %65 = icmp ne ptr %64, null
  br i1 %65, label %66, label %73

66:                                               ; preds = %56
  %67 = load i8, ptr %13, align 1
  %68 = load ptr, ptr %16, align 8
  %69 = load ptr, ptr %18, align 8
  %70 = load i32, ptr %69, align 4
  %71 = sext i32 %70 to i64
  %72 = getelementptr inbounds i8, ptr %68, i64 %71
  store i8 %67, ptr %72, align 1
  br label %73

73:                                               ; preds = %66, %56
  %74 = load ptr, ptr %17, align 8
  %75 = icmp ne ptr %74, null
  br i1 %75, label %76, label %83

76:                                               ; preds = %73
  %77 = load i32, ptr %14, align 4
  %78 = load ptr, ptr %17, align 8
  %79 = load ptr, ptr %18, align 8
  %80 = load i32, ptr %79, align 4
  %81 = sext i32 %80 to i64
  %82 = getelementptr inbounds i32, ptr %78, i64 %81
  store i32 %77, ptr %82, align 4
  br label %83

83:                                               ; preds = %76, %73
  %84 = load ptr, ptr %18, align 8
  %85 = load i32, ptr %84, align 4
  %86 = add nsw i32 %85, 1
  store i32 %86, ptr %84, align 4
  %87 = load ptr, ptr %18, align 8
  %88 = load i32, ptr %87, align 4
  %89 = load i32, ptr %19, align 4
  %90 = icmp sge i32 %88, %89
  br i1 %90, label %91, label %92

91:                                               ; preds = %83
  store i32 1073741840, ptr %10, align 4
  br label %99

92:                                               ; preds = %83
  %93 = load i8, ptr %13, align 1
  %94 = zext i8 %93 to i32
  %95 = icmp eq i32 %94, 2
  br i1 %95, label %96, label %97

96:                                               ; preds = %92
  store i32 1073741824, ptr %10, align 4
  br label %99

97:                                               ; preds = %92
  br label %98

98:                                               ; preds = %97, %55
  store i32 536870912, ptr %10, align 4
  br label %99

99:                                               ; preds = %98, %96, %91
  %100 = load i32, ptr %10, align 4
  ret i32 %100
}