; Function Attrs: mustprogress nofree nounwind uwtable
define noundef i32 @_ZNK14dtNavMeshQuery12appendVertexEPKfhjPfPhPjPii(ptr nocapture nonnull readnone align 8 %0, ptr nocapture noundef readonly %1, i8 noundef zeroext %2, i32 noundef %3, ptr nocapture noundef %4, ptr noundef writeonly %5, ptr noundef writeonly %6, ptr nocapture noundef %7, i32 noundef %8) local_unnamed_addr #14 align 2 personality ptr @__gxx_personality_v0 {
  %10 = load i32, ptr %7, align 4
  %11 = icmp sgt i32 %10, 0
  br i1 %11, label %12, label %._crit_edge

._crit_edge:                                      ; preds = %9
  %.pre35 = load float, ptr %1, align 4
  br label %52

12:                                               ; preds = %9
  %13 = mul i32 %10, 3
  %14 = add i32 %13, -3
  %15 = sext i32 %14 to i64
  %16 = getelementptr inbounds float, ptr %4, i64 %15
  %17 = load atomic i8, ptr @_ZGVZ8dtVequalPKfS0_E3thr acquire, align 8
  %18 = icmp eq i8 %17, 0
  br i1 %18, label %19, label %_Z8dtVequalPKfS0_.exit, !prof !43

19:                                               ; preds = %12
  %20 = tail call i32 @__cxa_guard_acquire(ptr nonnull @_ZGVZ8dtVequalPKfS0_E3thr) #20
  %.not.i = icmp eq i32 %20, 0
  br i1 %.not.i, label %_Z8dtVequalPKfS0_.exit, label %21

21:                                               ; preds = %19
  store float 0x3E30000000000000, ptr @_ZZ8dtVequalPKfS0_E3thr, align 4
  tail call void @__cxa_guard_release(ptr nonnull @_ZGVZ8dtVequalPKfS0_E3thr) #20
  br label %_Z8dtVequalPKfS0_.exit

_Z8dtVequalPKfS0_.exit:                           ; preds = %12, %19, %21
  %22 = load float, ptr %1, align 4
  %23 = load float, ptr %16, align 4
  %24 = fsub float %22, %23
  %25 = getelementptr inbounds i8, ptr %1, i64 4
  %26 = load float, ptr %25, align 4
  %27 = getelementptr inbounds i8, ptr %16, i64 4
  %28 = load float, ptr %27, align 4
  %29 = fsub float %26, %28
  %30 = getelementptr inbounds i8, ptr %1, i64 8
  %31 = load float, ptr %30, align 4
  %32 = getelementptr inbounds i8, ptr %16, i64 8
  %33 = load float, ptr %32, align 4
  %34 = fsub float %31, %33
  %35 = fmul float %29, %29
  %36 = tail call float @llvm.fmuladd.f32(float %24, float %24, float %35)
  %37 = tail call noundef float @llvm.fmuladd.f32(float %34, float %34, float %36)
  %38 = load float, ptr @_ZZ8dtVequalPKfS0_E3thr, align 4
  %39 = fcmp olt float %37, %38
  br i1 %39, label %40, label %_Z8dtVequalPKfS0_.exit._crit_edge

_Z8dtVequalPKfS0_.exit._crit_edge:                ; preds = %_Z8dtVequalPKfS0_.exit
  %.pre = load i32, ptr %7, align 4
  br label %52

40:                                               ; preds = %_Z8dtVequalPKfS0_.exit
  %.not33 = icmp eq ptr %5, null
  br i1 %.not33, label %46, label %41

41:                                               ; preds = %40
  %42 = load i32, ptr %7, align 4
  %43 = sext i32 %42 to i64
  %44 = getelementptr i8, ptr %5, i64 %43
  %45 = getelementptr i8, ptr %44, i64 -1
  store i8 %2, ptr %45, align 1
  br label %46

46:                                               ; preds = %41, %40
  %.not34 = icmp eq ptr %6, null
  br i1 %.not34, label %78, label %47

47:                                               ; preds = %46
  %48 = load i32, ptr %7, align 4
  %49 = sext i32 %48 to i64
  %50 = getelementptr i32, ptr %6, i64 %49
  %51 = getelementptr i8, ptr %50, i64 -4
  store i32 %3, ptr %51, align 4
  br label %78

52:                                               ; preds = %._crit_edge, %_Z8dtVequalPKfS0_.exit._crit_edge
  %53 = phi float [ %22, %_Z8dtVequalPKfS0_.exit._crit_edge ], [ %.pre35, %._crit_edge ]
  %54 = phi i32 [ %.pre, %_Z8dtVequalPKfS0_.exit._crit_edge ], [ %10, %._crit_edge ]
  %55 = mul nsw i32 %54, 3
  %56 = sext i32 %55 to i64
  %57 = getelementptr inbounds float, ptr %4, i64 %56
  store float %53, ptr %57, align 4
  %58 = getelementptr inbounds i8, ptr %1, i64 4
  %59 = load float, ptr %58, align 4
  %60 = getelementptr inbounds i8, ptr %57, i64 4
  store float %59, ptr %60, align 4
  %61 = getelementptr inbounds i8, ptr %1, i64 8
  %62 = load float, ptr %61, align 4
  %63 = getelementptr inbounds i8, ptr %57, i64 8
  store float %62, ptr %63, align 4
  %.not = icmp eq ptr %5, null
  br i1 %.not, label %68, label %64

64:                                               ; preds = %52
  %65 = load i32, ptr %7, align 4
  %66 = sext i32 %65 to i64
  %67 = getelementptr inbounds i8, ptr %5, i64 %66
  store i8 %2, ptr %67, align 1
  br label %68

68:                                               ; preds = %64, %52
  %.not31 = icmp eq ptr %6, null
  br i1 %.not31, label %73, label %69

69:                                               ; preds = %68
  %70 = load i32, ptr %7, align 4
  %71 = sext i32 %70 to i64
  %72 = getelementptr inbounds i32, ptr %6, i64 %71
  store i32 %3, ptr %72, align 4
  br label %73

73:                                               ; preds = %69, %68
  %74 = load i32, ptr %7, align 4
  %75 = add nsw i32 %74, 1
  store i32 %75, ptr %7, align 4
  %.not32 = icmp slt i32 %75, %8
  br i1 %.not32, label %76, label %79

76:                                               ; preds = %73
  %77 = icmp eq i8 %2, 2
  br i1 %77, label %79, label %78

78:                                               ; preds = %76, %46, %47
  br label %79

79:                                               ; preds = %76, %73, %78
  %.0 = phi i32 [ 536870912, %78 ], [ 1073741840, %73 ], [ 1073741824, %76 ]
  ret i32 %.0
}